; Function Attrs: mustprogress nofree nounwind willreturn memory(write, argmem: readwrite) uwtable
define double @proj_xyz_dist(ptr noundef readonly byval(%union.PJ_COORD) align 8 captures(none) %0, ptr noundef readonly byval(%union.PJ_COORD) align 8 captures(none) %1) local_unnamed_addr #5 {
  %.sroa.01.sroa.0.0.copyload = load double, ptr %0, align 8
  %.sroa.01.sroa.2.0..sroa_idx = getelementptr inbounds nuw i8, ptr %0, i64 8
  %.sroa.01.sroa.2.0.copyload = load double, ptr %.sroa.01.sroa.2.0..sroa_idx, align 8
  %.sroa.01.sroa.3.0..sroa_idx = getelementptr inbounds nuw i8, ptr %0, i64 16
  %.sroa.0.sroa.0.0.copyload = load double, ptr %1, align 8
  %.sroa.0.sroa.2.0..sroa_idx = getelementptr inbounds nuw i8, ptr %1, i64 8
  %.sroa.0.sroa.2.0.copyload = load double, ptr %.sroa.0.sroa.2.0..sroa_idx, align 8
  %.sroa.0.sroa.3.0..sroa_idx = getelementptr inbounds nuw i8, ptr %1, i64 16
  %3 = fsub double %.sroa.01.sroa.0.0.copyload, %.sroa.0.sroa.0.0.copyload
  %4 = fsub double %.sroa.01.sroa.2.0.copyload, %.sroa.0.sroa.2.0.copyload
  %5 = tail call double @hypot(double noundef %3, double noundef %4) #6, !tbaa !39
  %6 = load double, ptr %.sroa.01.sroa.3.0..sroa_idx, align 8, !tbaa !36
  %7 = load double, ptr %.sroa.0.sroa.3.0..sroa_idx, align 8, !tbaa !36
  %8 = fsub double %6, %7
  %9 = tail call double @hypot(double noundef %5, double noundef %8) #6, !tbaa !39
  ret double %9
}